; Function Attrs: nounwind uwtable
define void @lv_draw_svg_render(ptr noundef %0, ptr noundef %1) local_unnamed_addr #0 {
  %3 = icmp ne ptr %1, null
  %4 = icmp ne ptr %0, null
  %or.cond = and i1 %4, %3
  br i1 %or.cond, label %.preheader, label %.loopexit

.preheader:                                       ; preds = %2
  %5 = getelementptr inbounds nuw i8, ptr %0, i64 8
  %6 = getelementptr inbounds nuw i8, ptr %0, i64 256
  %7 = getelementptr inbounds nuw i8, ptr %0, i64 260
  %8 = getelementptr inbounds nuw i8, ptr %0, i64 264
  %9 = getelementptr inbounds nuw i8, ptr %0, i64 268
  %10 = getelementptr inbounds nuw i8, ptr %0, i64 296
  %11 = getelementptr inbounds nuw i8, ptr %0, i64 300
  %12 = getelementptr inbounds nuw i8, ptr %0, i64 304
  %13 = getelementptr inbounds nuw i8, ptr %0, i64 272
  %14 = getelementptr inbounds nuw i8, ptr %0, i64 308
  %15 = getelementptr inbounds nuw i8, ptr %0, i64 356
  %16 = getelementptr inbounds nuw i8, ptr %0, i64 428
  br label %17

17:                                               ; preds = %.preheader, %50
  %.016 = phi ptr [ %1, %.preheader ], [ %51, %50 ]
  %18 = getelementptr inbounds nuw i8, ptr %.016, i64 544
  %19 = load ptr, ptr %18, align 8, !tbaa !154
  %.not15 = icmp eq ptr %19, null
  br i1 %.not15, label %50, label %20

20:                                               ; preds = %17
  %21 = getelementptr inbounds nuw i8, ptr %.016, i64 8
  %22 = load i32, ptr %21, align 8, !tbaa !133
  %23 = and i32 %22, 3
  %24 = icmp eq i32 %23, 0
  br i1 %24, label %25, label %50

25:                                               ; preds = %20
  %26 = getelementptr inbounds nuw i8, ptr %.016, i64 24
  %27 = tail call ptr @lv_memcpy(ptr noundef nonnull %5, ptr noundef nonnull %26, i64 noundef 248) #9
  %28 = getelementptr inbounds nuw i8, ptr %.016, i64 272
  %29 = load i32, ptr %28, align 8, !tbaa !140
  store i32 %29, ptr %6, align 8, !tbaa !140
  %30 = getelementptr inbounds nuw i8, ptr %.016, i64 276
  %31 = load i32, ptr %30, align 4
  store i32 %31, ptr %7, align 4
  %32 = getelementptr inbounds nuw i8, ptr %.016, i64 280
  %33 = load i8, ptr %32, align 8, !tbaa !141
  store i8 %33, ptr %8, align 8, !tbaa !141
  %34 = getelementptr inbounds nuw i8, ptr %.016, i64 284
  %35 = load float, ptr %34, align 4, !tbaa !142
  store float %35, ptr %9, align 4, !tbaa !142
  %36 = getelementptr inbounds nuw i8, ptr %.016, i64 312
  %37 = load i32, ptr %36, align 8, !tbaa !143
  store i32 %37, ptr %10, align 8, !tbaa !143
  %38 = getelementptr inbounds nuw i8, ptr %.016, i64 316
  %39 = load i32, ptr %38, align 4, !tbaa !144
  store i32 %39, ptr %11, align 4, !tbaa !144
  %40 = getelementptr inbounds nuw i8, ptr %.016, i64 320
  %41 = load i16, ptr %40, align 8, !tbaa !145
  store i16 %41, ptr %12, align 8, !tbaa !145
  %42 = getelementptr inbounds nuw i8, ptr %.016, i64 288
  tail call void @lv_array_copy(ptr noundef nonnull %13, ptr noundef nonnull %42) #9
  %43 = getelementptr inbounds nuw i8, ptr %.016, i64 324
  %44 = tail call ptr @lv_memcpy(ptr noundef nonnull %14, ptr noundef nonnull %43, i64 noundef 48) #9
  %45 = getelementptr inbounds nuw i8, ptr %.016, i64 372
  %46 = tail call ptr @lv_memcpy(ptr noundef nonnull %15, ptr noundef nonnull %45, i64 noundef 36) #9
  %47 = getelementptr inbounds nuw i8, ptr %.016, i64 444
  %48 = load i32, ptr %47, align 4, !tbaa !47
  store i32 %48, ptr %16, align 4, !tbaa !47
  %49 = load ptr, ptr %18, align 8, !tbaa !154
  tail call void %49(ptr noundef nonnull %.016, ptr noundef nonnull %0, ptr noundef null) #9
  br label %50

50:                                               ; preds = %25, %20, %17
  %51 = load ptr, ptr %.016, align 8, !tbaa !136
  %.not = icmp eq ptr %51, null
  br i1 %.not, label %.loopexit, label %17, !llvm.loop !155

.loopexit:                                        ; preds = %50, %2
  ret void
}